; Function Attrs: null_pointer_is_valid sspstrong uwtable
define internal i32 @dissect_gssapi(ptr noundef %0, ptr noundef %1, ptr noundef %2, ptr noundef captures(address_is_null) %3) #0 {
  %5 = alloca %struct._gssapi_encrypt_info, align 8
  call void @llvm.lifetime.start.p0(i64 56, ptr nonnull %5) #13
  %.not.i = icmp eq ptr %3, null
  br i1 %.not.i, label %.thread.i, label %7

.thread.i:                                        ; preds = %4
  call void @llvm.memset.p0.i64(ptr noundef nonnull align 8 dereferenceable(56) %5, i8 noundef 0, i64 noundef 56, i1 noundef false) #13
  %6 = call fastcc i32 @dissect_gssapi_work(ptr noundef %0, ptr noundef %1, ptr noundef %2, i1 noundef zeroext false, ptr noundef nonnull %5)
  br label %dissect_gssapi_work_wrapper.exit

7:                                                ; preds = %4
  call void @llvm.memcpy.p0.p0.i64(ptr noundef nonnull align 8 dereferenceable(56) %5, ptr noundef nonnull align 8 dereferenceable(56) %3, i64 56, i1 false)
  %8 = call fastcc i32 @dissect_gssapi_work(ptr noundef %0, ptr noundef %1, ptr noundef %2, i1 noundef zeroext false, ptr noundef nonnull %5)
  call void @llvm.memcpy.p0.p0.i64(ptr noundef nonnull align 8 dereferenceable(56) %3, ptr noundef nonnull align 8 dereferenceable(56) %5, i64 56, i1 false)
  br label %dissect_gssapi_work_wrapper.exit

dissect_gssapi_work_wrapper.exit:                 ; preds = %.thread.i, %7
  %9 = phi i32 [ %6, %.thread.i ], [ %8, %7 ]
  call void @llvm.lifetime.end.p0(i64 56, ptr nonnull %5) #13
  ret i32 %9
}